; Function Attrs: mustprogress nounwind uwtable
define hidden void @_ZNK8Metadata8print_onEP12outputStream(ptr noundef nonnull align 8 dereferenceable(8) %0, ptr noundef %1) unnamed_addr #1 align 2 {
  %3 = tail call align 8 ptr @llvm.threadlocal.address.p0(ptr align 8 @_ZN6Thread12_thr_currentE)
  %4 = load ptr, ptr %3, align 8
  %5 = getelementptr inbounds i8, ptr %4, i64 800
  %6 = load ptr, ptr %5, align 8
  %7 = getelementptr inbounds i8, ptr %6, i64 24
  %8 = load ptr, ptr %7, align 8
  %9 = getelementptr inbounds i8, ptr %6, i64 32
  %10 = load ptr, ptr %9, align 8
  %11 = getelementptr inbounds i8, ptr %6, i64 40
  %12 = load ptr, ptr %11, align 8
  %13 = getelementptr inbounds i8, ptr %6, i64 8
  %14 = load i64, ptr %13, align 8
  %15 = load ptr, ptr %0, align 8
  %16 = getelementptr inbounds i8, ptr %15, i64 64
  %17 = load ptr, ptr %16, align 8
  %18 = tail call noundef ptr %17(ptr noundef nonnull align 8 dereferenceable(8) %0) #5
  tail call void (ptr, ptr, ...) @_ZN12outputStream5printEPKcz(ptr noundef nonnull align 8 dereferenceable(56) %1, ptr noundef nonnull @.str, ptr noundef %18) #5
  tail call void @_ZNK12MetaspaceObj16print_address_onEP12outputStream(ptr noundef nonnull align 1 dereferenceable(1) %0, ptr noundef nonnull %1) #5
  tail call void @_ZN12outputStream2crEv(ptr noundef nonnull align 8 dereferenceable(56) %1) #5
  %19 = load ptr, ptr %8, align 8
  %.not.i.i.i.i = icmp eq ptr %19, null
  br i1 %.not.i.i.i.i, label %21, label %20

20:                                               ; preds = %2
  tail call void @_ZN5Arena17set_size_in_bytesEm(ptr noundef nonnull align 8 dereferenceable(48) %6, i64 noundef %14) #5
  tail call void @_ZN5Chunk9next_chopEPS_(ptr noundef nonnull %8) #5
  br label %21

21:                                               ; preds = %20, %2
  %22 = load ptr, ptr %9, align 8
  %.not8.i.i.i.i = icmp eq ptr %22, %10
  br i1 %.not8.i.i.i.i, label %_ZN12ResourceMarkD2Ev.exit, label %23

23:                                               ; preds = %21
  store ptr %8, ptr %7, align 8
  store ptr %10, ptr %9, align 8
  store ptr %12, ptr %11, align 8
  br label %_ZN12ResourceMarkD2Ev.exit

_ZN12ResourceMarkD2Ev.exit:                       ; preds = %21, %23
  ret void
}